; Function Attrs: mustprogress uwtable
define void @_ZN32pxrInternal_v0_24__pxrReserved__30UsdImagingRenderProductAdapter8PopulateERKNS_7UsdPrimEPNS_20UsdImagingIndexProxyEPKNS_26UsdImagingInstancerContextE(ptr dead_on_unwind noalias nocapture writable writeonly sret(%"class.pxrInternal_v0_24__pxrReserved__::SdfPath") align 4 %0, ptr nocapture nonnull readnone align 8 %1, ptr nocapture nonnull readnone align 8 %2, ptr nocapture readnone %3, ptr nocapture readnone %4) unnamed_addr #0 align 2 personality ptr @__gxx_personality_v0 {
  %6 = tail call noundef nonnull align 4 dereferenceable(8) ptr @_ZN32pxrInternal_v0_24__pxrReserved__7SdfPath9EmptyPathEv()
  %7 = load i32, ptr %6, align 4
  store i32 %7, ptr %0, align 4
  %.not.i.i = icmp eq i32 %7, 0
  br i1 %.not.i.i, label %_ZN32pxrInternal_v0_24__pxrReserved__7SdfPathC2ERKS0_.exit, label %8

8:                                                ; preds = %5
  %9 = and i32 %7, 255
  %10 = lshr i32 %7, 8
  %11 = zext nneg i32 %9 to i64
  %12 = getelementptr inbounds [257 x ptr], ptr @_ZN32pxrInternal_v0_24__pxrReserved__8Sdf_PoolINS_15Sdf_PathPrimTagELj24ELj8ELj16384EE13_regionStartsE, i64 0, i64 %11
  %13 = load ptr, ptr %12, align 8
  %14 = mul nuw nsw i32 %10, 24
  %15 = zext nneg i32 %14 to i64
  %16 = getelementptr inbounds i8, ptr %13, i64 %15
  %17 = getelementptr inbounds nuw i8, ptr %16, i64 8
  %18 = atomicrmw add ptr %17, i32 1 monotonic, align 4
  br label %_ZN32pxrInternal_v0_24__pxrReserved__7SdfPathC2ERKS0_.exit

_ZN32pxrInternal_v0_24__pxrReserved__7SdfPathC2ERKS0_.exit: ; preds = %5, %8
  %19 = getelementptr inbounds nuw i8, ptr %0, i64 4
  %20 = getelementptr inbounds nuw i8, ptr %6, i64 4
  %21 = load i32, ptr %20, align 4
  store i32 %21, ptr %19, align 4
  ret void
}